target datalayout = "e-m:e-p270:32:32-p271:32:32-p272:64:64-i64:64-i128:128-f80:128-n8:16:32:64-S128"
target triple = "x86_64-pc-linux-gnu"

%struct.AVRational = type { i32, i32 }
%struct.AVCodecContext = type { ptr, i32, i32, ptr, i32, i32, ptr, ptr, ptr, i64, i32, i32, ptr, i32, %struct.AVRational, %struct.AVRational, %struct.AVRational, i32, i32, i32, i32, i32, %struct.AVRational, i32, i32, i32, i32, i32, i32, i32, i32, i32, i32, i32, ptr, ptr, i32, float, float, float, float, float, float, float, float, float, i32, i32, i32, i32, i32, i32, i32, i32, i32, i32, i32, i32, ptr, ptr, ptr, i32, i32, i32, i32, i32, i32, i32, i32, i32, i32, %struct.AVChannelLayout, i32, i32, i32, i32, i32, i32, i32, i32, ptr, i32, i32, i32, float, float, i32, i32, i32, i32, i32, ptr, i64, i64, float, float, i32, i32, ptr, ptr, i32, i32, i32, i32, i32, ptr, ptr, ptr, ptr, i32, i32, [8 x i64], i32, i32, i32, i32, i32, i32, i32, ptr, ptr, i32, i32, i32, i32, i32, i32, i32, i32, i32, i32, ptr, ptr, i32, i32, ptr, ptr, ptr, ptr, i32, i32, i64, i32, i32, i64, ptr, i64, ptr, i32, ptr, i32 }
%struct.AVChannelLayout = type { i32, i32, %union.anon, ptr }
%union.anon = type { i64 }

@__const.ff_check_codec_matrices.names = private unnamed_addr constant [3 x ptr] [ptr @.str.19, ptr @.str.20, ptr @.str.21], align 16
@.str.22 = private unnamed_addr constant [64 x i8] c"%s matrix[%d] is %d which is out of the allowed range [%u-%u].\0A\00", align 1

; Function Attrs: nounwind uwtable
define i32 @ff_check_codec_matrices(ptr noundef %0, i32 noundef %1, i16 noundef zeroext %2, i16 noundef zeroext %3) #0 {
  %5 = alloca i32, align 4
  %6 = alloca ptr, align 8
  %7 = alloca i32, align 4
  %8 = alloca i16, align 2
  %9 = alloca i16, align 2
  %10 = alloca [3 x ptr], align 16
  %11 = alloca [3 x ptr], align 16
  %12 = alloca i32, align 4
  %13 = alloca i32, align 4
  %14 = alloca ptr, align 8
  %15 = alloca i32, align 4
  store ptr %0, ptr %6, align 8, !tbaa !4
  store i32 %1, ptr %7, align 4, !tbaa !41
  store i16 %2, ptr %8, align 2, !tbaa !177
  store i16 %3, ptr %9, align 2, !tbaa !177
  call void @llvm.lifetime.start.p0(i64 24, ptr %10) #10
  %16 = load ptr, ptr %6, align 8, !tbaa !4
  %17 = getelementptr inbounds nuw %struct.AVCodecContext, ptr %16, i32 0, i32 58
  %18 = load ptr, ptr %17, align 8, !tbaa !178
  store ptr %18, ptr %10, align 8, !tbaa !179
  %19 = getelementptr inbounds ptr, ptr %10, i64 1
  %20 = load ptr, ptr %6, align 8, !tbaa !4
  %21 = getelementptr inbounds nuw %struct.AVCodecContext, ptr %20, i32 0, i32 59
  %22 = load ptr, ptr %21, align 8, !tbaa !180
  store ptr %22, ptr %19, align 8, !tbaa !179
  %23 = getelementptr inbounds ptr, ptr %10, i64 2
  %24 = load ptr, ptr %6, align 8, !tbaa !4
  %25 = getelementptr inbounds nuw %struct.AVCodecContext, ptr %24, i32 0, i32 60
  %26 = load ptr, ptr %25, align 8, !tbaa !181
  store ptr %26, ptr %23, align 8, !tbaa !179
  call void @llvm.lifetime.start.p0(i64 24, ptr %11) #10
  call void @llvm.memcpy.p0.p0.i64(ptr align 16 %11, ptr align 16 @__const.ff_check_codec_matrices.names, i64 24, i1 false)
  call void @llvm.lifetime.start.p0(i64 4, ptr %12) #10
  store i32 0, ptr %12, align 4, !tbaa !41
  br label %27

27:                                               ; preds = %98, %4
  %28 = load i32, ptr %12, align 4, !tbaa !41
  %29 = sext i32 %28 to i64
  %30 = icmp ult i64 %29, 3
  br i1 %30, label %32, label %31

31:                                               ; preds = %27
  store i32 2, ptr %13, align 4
  br label %101

32:                                               ; preds = %27
  call void @llvm.lifetime.start.p0(i64 8, ptr %14) #10
  %33 = load i32, ptr %12, align 4, !tbaa !41
  %34 = sext i32 %33 to i64
  %35 = getelementptr inbounds [3 x ptr], ptr %10, i64 0, i64 %34
  %36 = load ptr, ptr %35, align 8, !tbaa !179
  store ptr %36, ptr %14, align 8, !tbaa !179
  %37 = load ptr, ptr %14, align 8, !tbaa !179
  %38 = icmp ne ptr %37, null
  br i1 %38, label %39, label %94

39:                                               ; preds = %32
  %40 = load i32, ptr %7, align 4, !tbaa !41
  %41 = load i32, ptr %12, align 4, !tbaa !41
  %42 = shl i32 1, %41
  %43 = and i32 %40, %42
  %44 = icmp ne i32 %43, 0
  br i1 %44, label %45, label %94

45:                                               ; preds = %39
  call void @llvm.lifetime.start.p0(i64 4, ptr %15) #10
  store i32 0, ptr %15, align 4, !tbaa !41
  br label %46

46:                                               ; preds = %88, %45
  %47 = load i32, ptr %15, align 4, !tbaa !41
  %48 = icmp slt i32 %47, 64
  br i1 %48, label %50, label %49

49:                                               ; preds = %46
  store i32 5, ptr %13, align 4
  br label %91

50:                                               ; preds = %46
  %51 = load ptr, ptr %14, align 8, !tbaa !179
  %52 = load i32, ptr %15, align 4, !tbaa !41
  %53 = sext i32 %52 to i64
  %54 = getelementptr inbounds i16, ptr %51, i64 %53
  %55 = load i16, ptr %54, align 2, !tbaa !177
  %56 = zext i16 %55 to i32
  %57 = load i16, ptr %8, align 2, !tbaa !177
  %58 = zext i16 %57 to i32
  %59 = icmp slt i32 %56, %58
  br i1 %59, label %70, label %60

60:                                               ; preds = %50
  %61 = load ptr, ptr %14, align 8, !tbaa !179
  %62 = load i32, ptr %15, align 4, !tbaa !41
  %63 = sext i32 %62 to i64
  %64 = getelementptr inbounds i16, ptr %61, i64 %63
  %65 = load i16, ptr %64, align 2, !tbaa !177
  %66 = zext i16 %65 to i32
  %67 = load i16, ptr %9, align 2, !tbaa !177
  %68 = zext i16 %67 to i32
  %69 = icmp sgt i32 %66, %68
  br i1 %69, label %70, label %87

70:                                               ; preds = %60, %50
  %71 = load ptr, ptr %6, align 8, !tbaa !4
  %72 = load i32, ptr %12, align 4, !tbaa !41
  %73 = sext i32 %72 to i64
  %74 = getelementptr inbounds [3 x ptr], ptr %11, i64 0, i64 %73
  %75 = load ptr, ptr %74, align 8, !tbaa !47
  %76 = load i32, ptr %15, align 4, !tbaa !41
  %77 = load ptr, ptr %14, align 8, !tbaa !179
  %78 = load i32, ptr %15, align 4, !tbaa !41
  %79 = sext i32 %78 to i64
  %80 = getelementptr inbounds i16, ptr %77, i64 %79
  %81 = load i16, ptr %80, align 2, !tbaa !177
  %82 = zext i16 %81 to i32
  %83 = load i16, ptr %8, align 2, !tbaa !177
  %84 = zext i16 %83 to i32
  %85 = load i16, ptr %9, align 2, !tbaa !177
  %86 = zext i16 %85 to i32
  call void (ptr, i32, ptr, ...) @av_log(ptr noundef %71, i32 noundef 16, ptr noundef @.str.22, ptr noundef %75, i32 noundef %76, i32 noundef %82, i32 noundef %84, i32 noundef %86)
  store i32 -22, ptr %5, align 4
  store i32 1, ptr %13, align 4
  br label %91

87:                                               ; preds = %60
  br label %88

88:                                               ; preds = %87
  %89 = load i32, ptr %15, align 4, !tbaa !41
  %90 = add nsw i32 %89, 1
  store i32 %90, ptr %15, align 4, !tbaa !41
  br label %46, !llvm.loop !182

91:                                               ; preds = %70, %49
  call void @llvm.lifetime.end.p0(i64 4, ptr %15) #10
  %92 = load i32, ptr %13, align 4
  switch i32 %92, label %95 [
    i32 5, label %93
  ]

93:                                               ; preds = %91
  br label %94

94:                                               ; preds = %93, %39, %32
  store i32 0, ptr %13, align 4
  br label %95

95:                                               ; preds = %94, %91
  call void @llvm.lifetime.end.p0(i64 8, ptr %14) #10
  %96 = load i32, ptr %13, align 4
  switch i32 %96, label %101 [
    i32 0, label %97
  ]

97:                                               ; preds = %95
  br label %98

98:                                               ; preds = %97
  %99 = load i32, ptr %12, align 4, !tbaa !41
  %100 = add nsw i32 %99, 1
  store i32 %100, ptr %12, align 4, !tbaa !41
  br label %27, !llvm.loop !183

101:                                              ; preds = %95, %31
  call void @llvm.lifetime.end.p0(i64 4, ptr %12) #10
  %102 = load i32, ptr %13, align 4
  switch i32 %102, label %104 [
    i32 2, label %103
  ]

103:                                              ; preds = %101
  store i32 0, ptr %5, align 4
  store i32 1, ptr %13, align 4
  br label %104

104:                                              ; preds = %103, %101
  call void @llvm.lifetime.end.p0(i64 24, ptr %11) #10
  call void @llvm.lifetime.end.p0(i64 24, ptr %10) #10
  %105 = load i32, ptr %5, align 4
  ret i32 %105
}