; Function Attrs: nounwind uwtable
define range(i32 -22, 1) i32 @ff_check_codec_matrices(ptr noundef %0, i32 noundef %1, i16 noundef zeroext %2, i16 noundef zeroext %3) local_unnamed_addr #0 {
  %5 = alloca [3 x ptr], align 16
  call void @llvm.lifetime.start.p0(i64 24, ptr nonnull %5) #8
  %6 = getelementptr inbounds nuw i8, ptr %0, i64 288
  %7 = load ptr, ptr %6, align 8, !tbaa !156
  store ptr %7, ptr %5, align 16, !tbaa !157
  %8 = getelementptr inbounds nuw i8, ptr %5, i64 8
  %9 = getelementptr inbounds nuw i8, ptr %0, i64 296
  %10 = load ptr, ptr %9, align 8, !tbaa !158
  store ptr %10, ptr %8, align 8, !tbaa !157
  %11 = getelementptr inbounds nuw i8, ptr %5, i64 16
  %12 = getelementptr inbounds nuw i8, ptr %0, i64 304
  %13 = load ptr, ptr %12, align 8, !tbaa !159
  store ptr %13, ptr %11, align 16, !tbaa !157
  br label %14

14:                                               ; preds = %4, %.critedge39
  %indvars.iv50 = phi i64 [ 0, %4 ], [ %indvars.iv.next51, %.critedge39 ]
  %15 = getelementptr inbounds nuw [3 x ptr], ptr %5, i64 0, i64 %indvars.iv50
  %16 = load ptr, ptr %15, align 8, !tbaa !157
  %.not = icmp eq ptr %16, null
  br i1 %.not, label %.critedge39, label %17

17:                                               ; preds = %14
  %18 = trunc nuw nsw i64 %indvars.iv50 to i32
  %19 = shl nuw nsw i32 1, %18
  %20 = and i32 %19, %1
  %.not37 = icmp eq i32 %20, 0
  br i1 %.not37, label %.critedge39, label %.preheader

.preheader:                                       ; preds = %17, %32
  %indvars.iv = phi i64 [ %indvars.iv.next, %32 ], [ 0, %17 ]
  %21 = getelementptr inbounds nuw i16, ptr %16, i64 %indvars.iv
  %22 = load i16, ptr %21, align 2, !tbaa !160
  %23 = icmp ult i16 %22, %2
  %24 = icmp ugt i16 %22, %3
  %or.cond = or i1 %23, %24
  br i1 %or.cond, label %25, label %32

25:                                               ; preds = %.preheader
  %26 = trunc nuw nsw i64 %indvars.iv to i32
  %27 = zext i16 %2 to i32
  %28 = getelementptr inbounds nuw [3 x ptr], ptr @__const.ff_check_codec_matrices.names, i64 0, i64 %indvars.iv50
  %29 = load ptr, ptr %28, align 8, !tbaa !161
  %30 = zext i16 %22 to i32
  %31 = zext i16 %3 to i32
  tail call void (ptr, i32, ptr, ...) @av_log(ptr noundef %0, i32 noundef 16, ptr noundef nonnull @.str.22, ptr noundef %29, i32 noundef %26, i32 noundef %30, i32 noundef %27, i32 noundef %31) #8
  br label %.loopexit

32:                                               ; preds = %.preheader
  %indvars.iv.next = add nuw nsw i64 %indvars.iv, 1
  %exitcond = icmp eq i64 %indvars.iv.next, 64
  br i1 %exitcond, label %.critedge39, label %.preheader, !llvm.loop !162

.critedge39:                                      ; preds = %32, %17, %14
  %indvars.iv.next51 = add nuw nsw i64 %indvars.iv50, 1
  %exitcond53 = icmp eq i64 %indvars.iv.next51, 3
  br i1 %exitcond53, label %.loopexit, label %14, !llvm.loop !163

.loopexit:                                        ; preds = %.critedge39, %25
  %spec.select = phi i32 [ -22, %25 ], [ 0, %.critedge39 ]
  call void @llvm.lifetime.end.p0(i64 24, ptr nonnull %5) #8
  ret i32 %spec.select
}